target datalayout = "e-m:e-p270:32:32-p271:32:32-p272:64:64-i64:64-i128:128-f80:128-n8:16:32:64-S128"
target triple = "x86_64-pc-linux-gnu"

; Function Attrs: nounwind uwtable
define i32 @scram_H(ptr noundef %0, i32 noundef %1, i32 noundef %2, ptr noundef %3, ptr noundef %4) #0 {
  %6 = alloca i32, align 4
  %7 = alloca ptr, align 8
  %8 = alloca i32, align 4
  %9 = alloca i32, align 4
  %10 = alloca ptr, align 8
  %11 = alloca ptr, align 8
  %12 = alloca ptr, align 8
  %13 = alloca i32, align 4
  store ptr %0, ptr %7, align 8
  store i32 %1, ptr %8, align 4
  store i32 %2, ptr %9, align 4
  store ptr %3, ptr %10, align 8
  store ptr %4, ptr %11, align 8
  call void @llvm.lifetime.start.p0(i64 8, ptr %12) #7
  %14 = load i32, ptr %8, align 4
  %15 = call ptr @pg_cryptohash_create(i32 noundef %14)
  store ptr %15, ptr %12, align 8
  %16 = load ptr, ptr %12, align 8
  %17 = icmp eq ptr %16, null
  br i1 %17, label %18, label %21

18:                                               ; preds = %5
  %19 = call ptr @pg_cryptohash_error(ptr noundef null)
  %20 = load ptr, ptr %11, align 8
  store ptr %19, ptr %20, align 8
  store i32 -1, ptr %6, align 4
  store i32 1, ptr %13, align 4
  br label %46

21:                                               ; preds = %5
  %22 = load ptr, ptr %12, align 8
  %23 = call i32 @pg_cryptohash_init(ptr noundef %22)
  %24 = icmp slt i32 %23, 0
  br i1 %24, label %39, label %25

25:                                               ; preds = %21
  %26 = load ptr, ptr %12, align 8
  %27 = load ptr, ptr %7, align 8
  %28 = load i32, ptr %9, align 4
  %29 = sext i32 %28 to i64
  %30 = call i32 @pg_cryptohash_update(ptr noundef %26, ptr noundef %27, i64 noundef %29)
  %31 = icmp slt i32 %30, 0
  br i1 %31, label %39, label %32

32:                                               ; preds = %25
  %33 = load ptr, ptr %12, align 8
  %34 = load ptr, ptr %10, align 8
  %35 = load i32, ptr %9, align 4
  %36 = sext i32 %35 to i64
  %37 = call i32 @pg_cryptohash_final(ptr noundef %33, ptr noundef %34, i64 noundef %36)
  %38 = icmp slt i32 %37, 0
  br i1 %38, label %39, label %44

39:                                               ; preds = %32, %25, %21
  %40 = load ptr, ptr %12, align 8
  %41 = call ptr @pg_cryptohash_error(ptr noundef %40)
  %42 = load ptr, ptr %11, align 8
  store ptr %41, ptr %42, align 8
  %43 = load ptr, ptr %12, align 8
  call void @pg_cryptohash_free(ptr noundef %43)
  store i32 -1, ptr %6, align 4
  store i32 1, ptr %13, align 4
  br label %46

44:                                               ; preds = %32
  %45 = load ptr, ptr %12, align 8
  call void @pg_cryptohash_free(ptr noundef %45)
  store i32 0, ptr %6, align 4
  store i32 1, ptr %13, align 4
  br label %46

46:                                               ; preds = %44, %39, %18
  call void @llvm.lifetime.end.p0(i64 8, ptr %12) #7
  %47 = load i32, ptr %6, align 4
  ret i32 %47
}