; Function Attrs: nounwind uwtable
define range(i32 -1, 1) i32 @scram_H(ptr noundef %0, i32 noundef %1, i32 noundef %2, ptr noundef %3, ptr noundef writeonly captures(none) %4) local_unnamed_addr #0 {
  %6 = tail call ptr @pg_cryptohash_create(i32 noundef %1) #8
  %7 = icmp eq ptr %6, null
  br i1 %7, label %8, label %10

8:                                                ; preds = %5
  %9 = tail call ptr @pg_cryptohash_error(ptr noundef null) #8
  store ptr %9, ptr %4, align 8
  br label %23

10:                                               ; preds = %5
  %11 = tail call i32 @pg_cryptohash_init(ptr noundef nonnull %6) #8
  %12 = icmp slt i32 %11, 0
  br i1 %12, label %20, label %13

13:                                               ; preds = %10
  %14 = sext i32 %2 to i64
  %15 = tail call i32 @pg_cryptohash_update(ptr noundef nonnull %6, ptr noundef %0, i64 noundef %14) #8
  %16 = icmp slt i32 %15, 0
  br i1 %16, label %20, label %17

17:                                               ; preds = %13
  %18 = tail call i32 @pg_cryptohash_final(ptr noundef nonnull %6, ptr noundef %3, i64 noundef %14) #8
  %19 = icmp slt i32 %18, 0
  br i1 %19, label %20, label %22

20:                                               ; preds = %17, %13, %10
  %21 = tail call ptr @pg_cryptohash_error(ptr noundef nonnull %6) #8
  store ptr %21, ptr %4, align 8
  tail call void @pg_cryptohash_free(ptr noundef nonnull %6) #8
  br label %23

22:                                               ; preds = %17
  tail call void @pg_cryptohash_free(ptr noundef nonnull %6) #8
  br label %23

23:                                               ; preds = %22, %20, %8
  %.0 = phi i32 [ -1, %8 ], [ -1, %20 ], [ 0, %22 ]
  ret i32 %.0
}